; Function Attrs: null_pointer_is_valid sspstrong uwtable
define void @address_to_str_buf(ptr noundef %0, ptr noundef %1, i32 noundef %2) local_unnamed_addr #6 {
  %4 = icmp ne ptr %1, null
  %5 = icmp ne i32 %2, 0
  %or.cond = and i1 %4, %5
  br i1 %or.cond, label %6, label %19

6:                                                ; preds = %3
  %7 = load i32, ptr %0, align 8
  %8 = sext i32 %7 to i64
  %9 = getelementptr [45 x ptr], ptr @type_list, i64 0, i64 %8
  %10 = load ptr, ptr %9, align 8
  %11 = icmp eq ptr %10, null
  br i1 %11, label %16, label %12

12:                                               ; preds = %6
  %13 = getelementptr inbounds nuw i8, ptr %10, i64 24
  %14 = load ptr, ptr %13, align 8
  %15 = icmp eq ptr %14, null
  br i1 %15, label %16, label %17

16:                                               ; preds = %12, %6
  store i8 0, ptr %1, align 1
  br label %19

17:                                               ; preds = %12
  %18 = tail call i32 %14(ptr noundef %0, ptr noundef nonnull %1, i32 noundef %2)
  br label %19

19:                                               ; preds = %3, %17, %16
  ret void
}